target datalayout = "e-m:e-p270:32:32-p271:32:32-p272:64:64-i64:64-i128:128-f80:128-n8:16:32:64-S128"
target triple = "x86_64-pc-linux-gnu"

%union.pthread_mutex_t = type { %struct.__pthread_mutex_s }
%struct.__pthread_mutex_s = type { i32, i32, i32, i32, i32, i16, i16, %struct.__pthread_internal_list }
%struct.__pthread_internal_list = type { ptr, ptr }
%struct.slurm_step_id_msg = type { i64, i32, i32, i32 }
%struct.sockaddr_storage = type { i16, [118 x i8], i64 }
%struct.job_record = type { i32, ptr, ptr, ptr, ptr, i16, i32, i32, i32, ptr, i32, ptr, ptr, i16, ptr, double, i64, ptr, ptr, ptr, ptr, ptr, ptr, i32, ptr, i32, i64, i64, i32, i32, ptr, i16, i64, i64, i8, i32, ptr, ptr, ptr, ptr, ptr, ptr, ptr, ptr, i32, ptr, ptr, i32, ptr, i32, ptr, i32, ptr, i32, ptr, ptr, ptr, ptr, ptr, ptr, i32, i16, i64, ptr, ptr, ptr, ptr, %struct.acct_policy_limit_set_t, i16, ptr, ptr, ptr, ptr, ptr, i32, ptr, ptr, ptr, ptr, ptr, i32, i32, ptr, ptr, ptr, i16, ptr, ptr, i8, ptr, ptr, i64, i64, i8, i32, i32, i8, i32, ptr, i32, i64, i32, ptr, ptr, ptr, i8, i16, i64, i32, ptr, ptr, ptr, ptr, ptr, i16, i32, ptr, ptr, ptr, ptr, i32, ptr, i32, i16, i64, ptr, i32, i32, ptr, i64, ptr, ptr, i64, i32, i32, i64, i32, i32, ptr, ptr, ptr, ptr, ptr, ptr, ptr, ptr, ptr, ptr, ptr, ptr, i32, ptr, i16, i16, i16, i16, ptr, i32, i32, i8, i64 }
%struct.acct_policy_limit_set_t = type { i16, i16, ptr }
%struct.slurm_msg = type { %struct.sockaddr_storage, ptr, i32, i32, i32, i8, i32, i8, i32, ptr, ptr, i32, ptr, ptr, i16, i8, i16, i16, %struct.forward, ptr, %struct.sockaddr_storage, ptr }
%struct.forward = type { %struct.slurm_node_alias_addrs_t, i16, i16, ptr, i32, i16, i16 }
%struct.slurm_node_alias_addrs_t = type { i64, ptr, ptr, i32, ptr }
%struct.pack_step_args_t = type { ptr, i16, i32, i32, ptr, i8, i16, i8, ptr, ptr, ptr, ptr }
%struct.job_step_info_request_msg = type { i64, %struct.slurm_step_id_msg, i16 }

@stepmgr_mutex = dso_local global %union.pthread_mutex_t zeroinitializer, align 8
@.str.22 = private unnamed_addr constant [29 x i8] c"%s: pthread_mutex_lock(): %m\00", align 1
@.str.23 = private unnamed_addr constant [31 x i8] c"%s: pthread_mutex_unlock(): %m\00", align 1
@job_step_ptr = external global ptr, align 8
@__func__._handle_job_step_get_info = private unnamed_addr constant [26 x i8] c"_handle_job_step_get_info\00", align 1

; Function Attrs: nounwind uwtable
define internal i32 @_handle_job_step_get_info(i32 noundef %0, ptr noundef %1, i32 noundef %2) #0 {
  %4 = alloca i32, align 4
  %5 = alloca ptr, align 8
  %6 = alloca i32, align 4
  %7 = alloca i32, align 4
  %8 = alloca ptr, align 8
  %9 = alloca %struct.slurm_msg, align 8
  %10 = alloca ptr, align 8
  %11 = alloca %struct.pack_step_args_t, align 8
  %12 = alloca i32, align 4
  %13 = alloca i32, align 4
  store i32 %0, ptr %4, align 4
  store ptr %1, ptr %5, align 8
  store i32 %2, ptr %6, align 4
  call void @llvm.lifetime.start.p0(i64 4, ptr %7) #10
  call void @llvm.lifetime.start.p0(i64 8, ptr %8) #10
  call void @llvm.lifetime.start.p0(i64 424, ptr %9) #10
  call void @llvm.lifetime.start.p0(i64 8, ptr %10) #10
  call void @llvm.lifetime.start.p0(i64 72, ptr %11) #10
  call void @llvm.memset.p0.i64(ptr align 8 %11, i8 0, i64 72, i1 false)
  %14 = load i32, ptr %4, align 4
  %15 = load i32, ptr %6, align 4
  %16 = call i32 @_handle_stepmgr_relay_msg(i32 noundef %14, i32 noundef %15, ptr noundef %9, i16 noundef zeroext 2005, i1 noundef zeroext true)
  store i32 %16, ptr %7, align 4
  %17 = icmp ne i32 %16, 0
  br i1 %17, label %18, label %19

18:                                               ; preds = %3
  br label %68

19:                                               ; preds = %3
  %20 = getelementptr inbounds nuw %struct.slurm_msg, ptr %9, i32 0, i32 13
  %21 = load ptr, ptr %20, align 8
  store ptr %21, ptr %10, align 8
  %22 = call ptr @init_buf(i32 noundef 16384)
  store ptr %22, ptr %8, align 8
  br label %23

23:                                               ; preds = %19
  call void @llvm.lifetime.start.p0(i64 4, ptr %12) #10
  %24 = call i32 @pthread_mutex_lock(ptr noundef @stepmgr_mutex) #10
  store i32 %24, ptr %12, align 4
  %25 = load i32, ptr %12, align 4
  %26 = icmp ne i32 %25, 0
  br i1 %26, label %27, label %30

27:                                               ; preds = %23
  %28 = load i32, ptr %12, align 4
  %29 = call ptr @__errno_location() #11
  store i32 %28, ptr %29, align 4
  call void (ptr, ...) @fatal_abort(ptr noundef @.str.22, ptr noundef @__func__._handle_job_step_get_info) #12
  unreachable

30:                                               ; preds = %23
  call void @llvm.lifetime.end.p0(i64 4, ptr %12) #10
  br label %31

31:                                               ; preds = %30
  br label %32

32:                                               ; preds = %31
  %33 = load ptr, ptr %10, align 8
  %34 = getelementptr inbounds nuw %struct.job_step_info_request_msg, ptr %33, i32 0, i32 1
  %35 = getelementptr inbounds nuw %struct.pack_step_args_t, ptr %11, i32 0, i32 0
  store ptr %34, ptr %35, align 8
  %36 = getelementptr inbounds nuw %struct.pack_step_args_t, ptr %11, i32 0, i32 3
  store i32 0, ptr %36, align 8
  %37 = load ptr, ptr %8, align 8
  %38 = getelementptr inbounds nuw %struct.pack_step_args_t, ptr %11, i32 0, i32 4
  store ptr %37, ptr %38, align 8
  %39 = getelementptr inbounds nuw %struct.slurm_msg, ptr %9, i32 0, i32 17
  %40 = load i16, ptr %39, align 2
  %41 = getelementptr inbounds nuw %struct.pack_step_args_t, ptr %11, i32 0, i32 6
  store i16 %40, ptr %41, align 2
  %42 = load ptr, ptr @job_step_ptr, align 8
  %43 = getelementptr inbounds nuw %struct.job_record, ptr %42, i32 0, i32 128
  %44 = load ptr, ptr %43, align 8
  %45 = getelementptr inbounds nuw %struct.pack_step_args_t, ptr %11, i32 0, i32 9
  store ptr %44, ptr %45, align 8
  %46 = getelementptr inbounds nuw %struct.pack_step_args_t, ptr %11, i32 0, i32 11
  store ptr @pack_ctld_job_step_info, ptr %46, align 8
  %47 = call i32 @pack_job_step_info_response_msg(ptr noundef %11)
  br label %48

48:                                               ; preds = %32
  call void @llvm.lifetime.start.p0(i64 4, ptr %13) #10
  %49 = call i32 @pthread_mutex_unlock(ptr noundef @stepmgr_mutex) #10
  store i32 %49, ptr %13, align 4
  %50 = load i32, ptr %13, align 4
  %51 = icmp ne i32 %50, 0
  br i1 %51, label %52, label %55

52:                                               ; preds = %48
  %53 = load i32, ptr %13, align 4
  %54 = call ptr @__errno_location() #11
  store i32 %53, ptr %54, align 4
  call void (ptr, ...) @fatal_abort(ptr noundef @.str.23, ptr noundef @__func__._handle_job_step_get_info) #12
  unreachable

55:                                               ; preds = %48
  call void @llvm.lifetime.end.p0(i64 4, ptr %13) #10
  br label %56

56:                                               ; preds = %55
  br label %57

57:                                               ; preds = %56
  %58 = load ptr, ptr %8, align 8
  %59 = call i32 @send_msg_response(ptr noundef %9, i32 noundef 2006, ptr noundef %58)
  br label %60

60:                                               ; preds = %57
  %61 = load ptr, ptr %8, align 8
  %62 = icmp ne ptr %61, null
  br i1 %62, label %63, label %65

63:                                               ; preds = %60
  %64 = load ptr, ptr %8, align 8
  call void @free_buf(ptr noundef %64)
  br label %65

65:                                               ; preds = %63, %60
  store ptr null, ptr %8, align 8
  br label %66

66:                                               ; preds = %65
  br label %67

67:                                               ; preds = %66
  call void @slurm_free_msg_members(ptr noundef %9)
  br label %68

68:                                               ; preds = %67, %18
  %69 = load i32, ptr %7, align 4
  call void @llvm.lifetime.end.p0(i64 72, ptr %11) #10
  call void @llvm.lifetime.end.p0(i64 8, ptr %10) #10
  call void @llvm.lifetime.end.p0(i64 424, ptr %9) #10
  call void @llvm.lifetime.end.p0(i64 8, ptr %8) #10
  call void @llvm.lifetime.end.p0(i64 4, ptr %7) #10
  ret i32 %69
}