; Function Attrs: nounwind uwtable
define internal fastcc i32 @_handle_job_step_get_info(i32 noundef %0, i32 noundef %1) unnamed_addr #0 {
  %3 = alloca %struct.slurm_msg, align 8
  %4 = alloca %struct.pack_step_args_t, align 8
  call void @llvm.lifetime.start.p0(i64 424, ptr nonnull %3) #13
  call void @llvm.lifetime.start.p0(i64 72, ptr nonnull %4) #13
  %5 = getelementptr inbounds nuw i8, ptr %4, i64 8
  call void @llvm.memset.p0.i64(ptr noundef nonnull align 8 dereferenceable(72) %5, i8 0, i64 56, i1 false)
  %6 = call fastcc i32 @_handle_stepmgr_relay_msg(i32 noundef %0, i32 noundef %1, ptr noundef %3, i16 noundef zeroext 2005, i1 noundef zeroext true)
  %.not = icmp eq i32 %6, 0
  br i1 %.not, label %7, label %34

7:                                                ; preds = %2
  %8 = getelementptr inbounds nuw i8, ptr %3, i64 200
  %9 = load ptr, ptr %8, align 8
  %10 = call ptr @init_buf(i32 noundef 16384) #13
  %11 = call i32 @pthread_mutex_lock(ptr noundef nonnull @stepmgr_mutex) #13
  %.not13 = icmp eq i32 %11, 0
  br i1 %.not13, label %14, label %12

12:                                               ; preds = %7
  %13 = tail call ptr @__errno_location() #14
  store i32 %11, ptr %13, align 4
  call void (ptr, ...) @fatal_abort(ptr noundef nonnull @.str.22, ptr noundef nonnull @__func__._handle_job_step_get_info) #15
  unreachable

14:                                               ; preds = %7
  %15 = getelementptr inbounds nuw i8, ptr %9, i64 8
  store ptr %15, ptr %4, align 8
  %16 = getelementptr inbounds nuw i8, ptr %4, i64 16
  store i32 0, ptr %16, align 8
  %17 = getelementptr inbounds nuw i8, ptr %4, i64 24
  store ptr %10, ptr %17, align 8
  %18 = getelementptr inbounds nuw i8, ptr %3, i64 214
  %19 = load i16, ptr %18, align 2
  %20 = getelementptr inbounds nuw i8, ptr %4, i64 34
  store i16 %19, ptr %20, align 2
  %21 = load ptr, ptr @job_step_ptr, align 8
  %22 = getelementptr inbounds nuw i8, ptr %21, i64 936
  %23 = load ptr, ptr %22, align 8
  %24 = getelementptr inbounds nuw i8, ptr %4, i64 48
  store ptr %23, ptr %24, align 8
  %25 = getelementptr inbounds nuw i8, ptr %4, i64 64
  store ptr @pack_ctld_job_step_info, ptr %25, align 8
  %26 = call i32 @pack_job_step_info_response_msg(ptr noundef nonnull %4) #13
  %27 = call i32 @pthread_mutex_unlock(ptr noundef nonnull @stepmgr_mutex) #13
  %.not14 = icmp eq i32 %27, 0
  br i1 %.not14, label %30, label %28

28:                                               ; preds = %14
  %29 = tail call ptr @__errno_location() #14
  store i32 %27, ptr %29, align 4
  call void (ptr, ...) @fatal_abort(ptr noundef nonnull @.str.23, ptr noundef nonnull @__func__._handle_job_step_get_info) #15
  unreachable

30:                                               ; preds = %14
  %31 = call i32 @send_msg_response(ptr noundef nonnull %3, i32 noundef 2006, ptr noundef %10) #13
  %.not15 = icmp eq ptr %10, null
  br i1 %.not15, label %33, label %32

32:                                               ; preds = %30
  call void @free_buf(ptr noundef nonnull %10) #13
  br label %33

33:                                               ; preds = %32, %30
  call void @slurm_free_msg_members(ptr noundef nonnull %3) #13
  br label %34

34:                                               ; preds = %2, %33
  call void @llvm.lifetime.end.p0(i64 72, ptr nonnull %4) #13
  call void @llvm.lifetime.end.p0(i64 424, ptr nonnull %3) #13
  ret i32 %6
}